Certificate:
    Data:
        Version: 3 (0x2)
        Serial Number: 1 (0x1)
    Signature Algorithm: sha1WithRSAEncryption
        Issuer: C=US, ST=Virginia, L=Fairfax, O=Root CA, CN=easyssl.com/emailAddress=root@easyssl.com
        Validity
            Not Before: Apr 28 00:33:00 2015 GMT
            Not After : Apr 27 00:33:00 2016 GMT
        Subject: C=US, ST=Virginia, L=Fairfax, O=Server, CN=server.easyssl.com/emailAddress=server@easyssl.com
        Subject Public Key Info:
            Public Key Algorithm: rsaEncryption
                Public-Key: (1024 bit)
                Modulus:
                    00:b6:3c:f8:7d:2e:c2:12:02:c6:bf:8b:c8:84:ef:
                    f8:77:08:b5:a9:52:4a:cd:57:29:80:60:98:1e:13:
                    66:02:49:31:78:ae:54:6e:44:86:89:3a:07:6a:f5:
                    68:2a:4e:70:f3:c1:88:ab:aa:3c:70:a7:79:07:00:
                    3e:28:e9:d4:de:39:de:c0:2f:b8:09:0c:2c:9e:59:
                    0c:2d:7f:41:9e:3c:cf:65:da:14:41:d7:bd:aa:62:
                    08:57:05:1f:b5:ef:0c:7e:04:f7:63:8b:30:1a:0f:
                    7f:33:01:5d:6a:63:cc:25:48:56:e6:17:32:de:0b:
                    6a:3a:93:55:33:5f:61:82:d9
                Exponent: 65537 (0x10001)
        X509v3 extensions:
            X509v3 Basic Constraints: 
                CA:FALSE
            X509v3 Subject Alternative Name: 
                DNS:server.easyssl.com, email:server@easyssl.com
            X509v3 CRL Distribution Points: 

                Full Name:
                  URI:http://easyssl.com/crl.pem

    Signature Algorithm: sha1WithRSAEncryption
         44:6f:c2:f1:97:ac:c1:43:d0:a6:43:8b:b5:ff:64:33:bc:f5:
         fd:ee:82:7e:d1:f2:d0:20:31:a2:5b:df:bf:59:1f:40:34:90:
         13:1c:1a:1f:ea:8f:84:41:e1:70:06:66:a9:83:22:1d:d8:55:
         66:b0:82:84:fa:69:c5:05:bf:78:2e:6a:b8:a2:4e:74:af:dc:
         03:1f:e2:87:99:8d:e8:13:71:0e:c0:e7:e2:56:1f:62:c0:5a:
         ca:d7:a9:32:b3:3c:db:fc:92:69:e5:fe:51:f9:af:16:c3:cf:
         31:bc:56:36:73:d9:39:2b:87:70:f2:3c:3f:0a:03:b3:7f:2b:
         63:ce:88:1c:5c:a0:07:77:b5:8d:de:43:36:af:65:9c:a6:56:
         0e:02:4a:a4:a3:f6:b7:3f:fd:46:49:ef:35:a3:45:73:be:a4:
         7a:5c:a3:cb:ee:c8:66:14:bc:d0:a4:86:44:ab:73:06:d5:c1:
         29:f9:23:77:17:c3:2b:7c:dd:ad:84:1e:14:f0:0d:9b:07:e5:
         da:7a:d8:8a:d6:a3:1d:df:c5:97:e1:13:f7:f0:35:4d:ed:e9:
         13:bd:22:81:c5:d3:13:3e:0a:c5:a9:0a:dc:4a:56:f2:8f:17:
         a3:65:8d:c9:53:fd:83:40:37:92:08:8a:13:75:0e:50:0f:df:
         ca:30:54:dd
-----BEGIN CERTIFICATE-----
MIIDYzCCAkugAwIBAgIBATANBgkqhkiG9w0BAQUFADB7MQswCQYDVQQGEwJVUzER
MA8GA1UECBMIVmlyZ2luaWExEDAOBgNVBAcTB0ZhaXJmYXgxEDAOBgNVBAoTB1Jv
b3QgQ0ExFDASBgNVBAMTC2Vhc3lzc2wuY29tMR8wHQYJKoZIhvcNAQkBFhByb290
QGVhc3lzc2wuY29tMB4XDTE1MDQyODAwMzMwMFoXDTE2MDQyNzAwMzMwMFowgYMx
CzAJBgNVBAYTAlVTMREwDwYDVQQIEwhWaXJnaW5pYTEQMA4GA1UEBxMHRmFpcmZh
eDEPMA0GA1UEChMGU2VydmVyMRswGQYDVQQDExJzZXJ2ZXIuZWFzeXNzbC5jb20x
ITAfBgkqhkiG9w0BCQEWEnNlcnZlckBlYXN5c3NsLmNvbTCBnzANBgkqhkiG9w0B
AQEFAAOBjQAwgYkCgYEAtjz4fS7CEgLGv4vIhO/4dwi1qVJKzVcpgGCYHhNmAkkx
eK5UbkSGiToHavVoKk5w88GIq6o8cKd5BwA+KOnU3jnewC+4CQwsnlkMLX9BnjzP
ZdoUQde9qmIIVwUfte8MfgT3Y4swGg9/MwFdamPMJUhW5hcy3gtqOpNVM19hgtkC
AwEAAaNtMGswCQYDVR0TBAIwADAxBgNVHREEKjAoghJzZXJ2ZXIuZWFzeXNzbC5j
b22BEnNlcnZlckBlYXN5c3NsLmNvbTArBgNVHR8EJDAiMCCgHqAchhpodHRwOi8v
ZWFzeXNzbC5jb20vY3JsLnBlbTANBgkqhkiG9w0BAQUFAAOCAQEARG/C8ZeswUPQ
pkOLtf9kM7z1/e6CftHy0CAxolvfv1kfQDSQExwaH+qPhEHhcAZmqYMiHdhVZrCC
hPppxQW/eC5quKJOdK/cAx/ih5mN6BNxDsDn4lYfYsBaytepMrM82/ySaeX+Ufmv
FsPPMbxWNnPZOSuHcPI8PwoDs38rY86IHFygB3e1jd5DNq9lnKZWDgJKpKP2tz/9
RknvNaNFc76kelyjy+7IZhS80KSGRKtzBtXBKfkjdxfDK3zdrYQeFPANmwfl2nrY
itajHd/Fl+ET9/A1Te3pE70igcXTEz4KxakK3EpW8o8Xo2WNyVP9g0A3kgiKE3UO
UA/fyjBU3Q==
-----END CERTIFICATE-----
