Certificate:
    Data:
        Version: 3 (0x2)
        Serial Number: 2 (0x2)
    Signature Algorithm: sha1WithRSAEncryption
        Issuer: C=US, ST=Virginia, L=Fairfax, O=Root CA, CN=easyssl.com/emailAddress=root@easyssl.com
        Validity
            Not Before: Apr 28 00:33:35 2015 GMT
            Not After : Apr 27 00:33:35 2016 GMT
        Subject: C=US, ST=Virginia, L=Fairfax, O=Client, CN=client.easyssl.com/emailAddress=client@easyssl.com
        Subject Public Key Info:
            Public Key Algorithm: rsaEncryption
                Public-Key: (1024 bit)
                Modulus:
                    00:ac:c8:99:34:d6:d3:ee:e3:3f:7a:8a:dd:12:dc:
                    3f:b3:01:2a:ea:ac:60:16:a3:4e:e2:5d:49:f9:ba:
                    d2:cf:bb:73:81:1e:c3:a7:26:c7:c3:6c:67:d4:4b:
                    19:eb:cc:13:5a:bf:0c:8c:26:b5:ee:c5:a5:33:b0:
                    4a:bb:15:fd:7e:be:76:8d:3a:b8:a0:b1:a5:dd:91:
                    8d:e1:c4:28:ae:b1:24:17:79:44:b4:52:c3:5e:7e:
                    b9:e7:e4:66:b9:c5:61:e9:a6:b1:39:31:c2:7b:55:
                    e4:39:8a:f3:a9:9b:85:75:e9:e1:b7:b5:d7:2d:21:
                    20:d2:d0:77:b5:be:0d:b6:83
                Exponent: 65537 (0x10001)
        X509v3 extensions:
            X509v3 Basic Constraints: 
                CA:FALSE
            X509v3 Subject Alternative Name: 
                email:client@easyssl.com
            X509v3 CRL Distribution Points: 

                Full Name:
                  URI:http://easyssl.com/crl.pem

    Signature Algorithm: sha1WithRSAEncryption
         3b:74:00:74:a7:41:0d:f1:77:4a:55:87:85:f9:77:30:97:4a:
         64:c2:3a:43:42:06:9a:f7:c9:60:40:aa:6b:f1:02:88:73:56:
         2b:11:3e:92:2a:03:66:c2:d5:82:9c:bb:86:8b:74:01:32:a8:
         4e:c3:1f:60:89:41:1e:36:d5:c1:b4:cd:eb:82:f6:fc:71:7f:
         0e:4f:6f:f3:c6:92:19:9d:c0:59:83:a6:bf:26:da:3c:71:8a:
         e4:dd:45:7c:dd:25:e0:dc:6d:e1:a3:6c:7c:11:56:e8:90:d3:
         08:f8:32:27:01:c6:37:63:1d:3a:5e:47:29:ad:8e:bc:fb:18:
         05:ed:02:23:f4:4d:ea:65:c3:7b:96:d8:ae:1a:23:b3:60:f1:
         86:f7:e6:23:20:00:6f:75:ec:eb:5b:28:68:0a:bf:61:ea:f8:
         53:55:0b:1e:26:f3:b5:ff:87:66:e8:f1:73:de:55:21:d7:c4:
         80:ac:24:d7:a5:f6:31:ab:94:9a:1c:21:ed:6a:9e:14:ee:5b:
         69:df:15:b0:33:11:96:c8:2c:33:d8:72:33:17:49:46:d7:42:
         f3:83:94:62:96:56:03:f9:3c:af:74:55:da:a8:67:86:05:eb:
         d1:95:64:5b:eb:cf:ff:4a:d3:9b:35:b6:22:02:eb:b3:c4:91:
         0a:d8:20:33
-----BEGIN CERTIFICATE-----
MIIDTzCCAjegAwIBAgIBAjANBgkqhkiG9w0BAQUFADB7MQswCQYDVQQGEwJVUzER
MA8GA1UECBMIVmlyZ2luaWExEDAOBgNVBAcTB0ZhaXJmYXgxEDAOBgNVBAoTB1Jv
b3QgQ0ExFDASBgNVBAMTC2Vhc3lzc2wuY29tMR8wHQYJKoZIhvcNAQkBFhByb290
QGVhc3lzc2wuY29tMB4XDTE1MDQyODAwMzMzNVoXDTE2MDQyNzAwMzMzNVowgYMx
CzAJBgNVBAYTAlVTMREwDwYDVQQIEwhWaXJnaW5pYTEQMA4GA1UEBxMHRmFpcmZh
eDEPMA0GA1UEChMGQ2xpZW50MRswGQYDVQQDExJjbGllbnQuZWFzeXNzbC5jb20x
ITAfBgkqhkiG9w0BCQEWEmNsaWVudEBlYXN5c3NsLmNvbTCBnzANBgkqhkiG9w0B
AQEFAAOBjQAwgYkCgYEArMiZNNbT7uM/eordEtw/swEq6qxgFqNO4l1J+brSz7tz
gR7DpybHw2xn1EsZ68wTWr8MjCa17sWlM7BKuxX9fr52jTq4oLGl3ZGN4cQorrEk
F3lEtFLDXn655+RmucVh6aaxOTHCe1XkOYrzqZuFdenht7XXLSEg0tB3tb4NtoMC
AwEAAaNZMFcwCQYDVR0TBAIwADAdBgNVHREEFjAUgRJjbGllbnRAZWFzeXNzbC5j
b20wKwYDVR0fBCQwIjAgoB6gHIYaaHR0cDovL2Vhc3lzc2wuY29tL2NybC5wZW0w
DQYJKoZIhvcNAQEFBQADggEBADt0AHSnQQ3xd0pVh4X5dzCXSmTCOkNCBpr3yWBA
qmvxAohzVisRPpIqA2bC1YKcu4aLdAEyqE7DH2CJQR421cG0zeuC9vxxfw5Pb/PG
khmdwFmDpr8m2jxxiuTdRXzdJeDcbeGjbHwRVuiQ0wj4MicBxjdjHTpeRymtjrz7
GAXtAiP0Teplw3uW2K4aI7Ng8Yb35iMgAG917OtbKGgKv2Hq+FNVCx4m87X/h2bo
8XPeVSHXxICsJNel9jGrlJocIe1qnhTuW2nfFbAzEZbILDPYcjMXSUbXQvODlGKW
VgP5PK90VdqoZ4YF69GVZFvrz/9K05s1tiIC67PEkQrYIDM=
-----END CERTIFICATE-----
