Certificate:
    Data:
        Version: 3 (0x2)
        Serial Number: 2 (0x2)
    Signature Algorithm: sha1WithRSAEncryption
        Issuer: C=US, ST=Virginia, L=Fairfax, O=Zork.org, CN=Root CA/emailAddress=root@zork.org
        Validity
            Not Before: Apr 20 16:09:37 2015 GMT
            Not After : Apr 19 16:09:37 2016 GMT
        Subject: C=US, ST=Virginia, L=Fairfax, O=Zork.org, CN=shell.zork.org/emailAddress=shell@zork.org
        Subject Public Key Info:
            Public Key Algorithm: rsaEncryption
                Public-Key: (1024 bit)
                Modulus:
                    00:9b:56:2f:b4:28:e2:97:79:2e:7f:b1:43:37:c1:
                    f3:13:de:d4:0d:9e:fe:c4:77:04:21:38:90:b0:5a:
                    8b:7b:1c:63:3f:59:58:6f:b2:99:c5:fc:c4:6f:e1:
                    06:98:96:85:40:f8:79:aa:06:16:0e:e0:1b:9c:23:
                    9a:0a:3f:cf:86:cd:82:76:65:41:3e:d0:65:2c:ff:
                    1e:55:d6:87:7b:23:6d:fa:5f:f4:4a:3a:24:38:57:
                    77:bc:be:18:e9:06:4c:0c:2f:0f:bf:5d:ac:f5:d2:
                    ed:cd:f4:32:18:fc:f2:4d:d2:3a:99:68:44:14:26:
                    36:3d:c6:e3:8b:e1:3e:38:59
                Exponent: 65537 (0x10001)
        X509v3 extensions:
            X509v3 Basic Constraints: 
                CA:FALSE
            X509v3 Subject Alternative Name: 
                email:shell@zork.org
            X509v3 CRL Distribution Points: 

                Full Name:
                  URI:http://easyssl.com/crl.pem

    Signature Algorithm: sha1WithRSAEncryption
         4d:1d:53:bd:60:14:2b:eb:88:c2:1c:d5:3e:f9:85:41:ea:d8:
         3b:ef:61:c8:ed:63:38:a1:9a:5c:d8:ca:74:9b:69:1c:da:c0:
         08:d9:47:ab:84:41:5b:63:e1:69:5e:63:09:8c:ce:5f:ae:fe:
         ec:60:cc:3c:fe:ac:2d:af:40:83:fc:17:55:5b:6a:d9:8e:9e:
         8e:6f:b3:4f:0e:b4:f1:91:d1:f4:d5:21:03:4b:08:c3:6c:6c:
         25:87:e2:67:ab:a1:a9:eb:71:ef:3f:44:ee:da:86:c7:d5:c7:
         b8:a9:16:d5:a5:6f:8e:d5:7c:82:93:95:d6:3a:8f:c4:68:d6:
         6c:e5:50:08:c0:e5:96:d0:f4:dd:2c:a4:10:03:29:bf:5f:13:
         72:e1:84:e8:0e:05:af:9e:d2:62:26:d4:30:68:94:3f:e5:4b:
         44:ca:d2:60:13:1a:36:cc:7e:05:15:59:23:8d:f3:8b:12:ff:
         f3:b2:8c:8f:ff:bc:3b:b5:66:70:49:aa:46:80:77:a5:f9:1e:
         f1:a0:77:4a:c1:9d:8a:56:a0:09:6d:c1:e5:d9:3b:4d:c5:5f:
         ea:96:12:63:35:ff:9f:b2:2c:44:35:64:ad:fc:1e:b4:63:8f:
         16:39:8b:26:d6:c4:42:0d:72:f9:eb:25:3e:c0:ec:52:93:9e:
         f5:65:36:51
-----BEGIN CERTIFICATE-----
MIIDPjCCAiagAwIBAgIBAjANBgkqhkiG9w0BAQUFADB1MQswCQYDVQQGEwJVUzER
MA8GA1UECBMIVmlyZ2luaWExEDAOBgNVBAcTB0ZhaXJmYXgxETAPBgNVBAoTCFpv
cmsub3JnMRAwDgYDVQQDEwdSb290IENBMRwwGgYJKoZIhvcNAQkBFg1yb290QHpv
cmsub3JnMB4XDTE1MDQyMDE2MDkzN1oXDTE2MDQxOTE2MDkzN1owfTELMAkGA1UE
BhMCVVMxETAPBgNVBAgTCFZpcmdpbmlhMRAwDgYDVQQHEwdGYWlyZmF4MREwDwYD
VQQKEwhab3JrLm9yZzEXMBUGA1UEAxMOc2hlbGwuem9yay5vcmcxHTAbBgkqhkiG
9w0BCQEWDnNoZWxsQHpvcmsub3JnMIGfMA0GCSqGSIb3DQEBAQUAA4GNADCBiQKB
gQCbVi+0KOKXeS5/sUM3wfMT3tQNnv7EdwQhOJCwWot7HGM/WVhvspnF/MRv4QaY
loVA+HmqBhYO4BucI5oKP8+GzYJ2ZUE+0GUs/x5V1od7I236X/RKOiQ4V3e8vhjp
BkwMLw+/Xaz10u3N9DIY/PJN0jqZaEQUJjY9xuOL4T44WQIDAQABo1UwUzAJBgNV
HRMEAjAAMBkGA1UdEQQSMBCBDnNoZWxsQHpvcmsub3JnMCsGA1UdHwQkMCIwIKAe
oByGGmh0dHA6Ly9lYXN5c3NsLmNvbS9jcmwucGVtMA0GCSqGSIb3DQEBBQUAA4IB
AQBNHVO9YBQr64jCHNU++YVB6tg772HI7WM4oZpc2Mp0m2kc2sAI2UerhEFbY+Fp
XmMJjM5frv7sYMw8/qwtr0CD/BdVW2rZjp6Ob7NPDrTxkdH01SEDSwjDbGwlh+Jn
q6Gp63HvP0Tu2obH1ce4qRbVpW+O1XyCk5XWOo/EaNZs5VAIwOWW0PTdLKQQAym/
XxNy4YToDgWvntJiJtQwaJQ/5UtEytJgExo2zH4FFVkjjfOLEv/zsoyP/7w7tWZw
SapGgHel+R7xoHdKwZ2KVqAJbcHl2TtNxV/qlhJjNf+fsixENWSt/B60Y48WOYsm
1sRCDXL56yU+wOxSk571ZTZR
-----END CERTIFICATE-----
-----BEGIN CERTIFICATE-----
MIIEdzCCA1+gAwIBAgIJAOLrXR9KikFzMA0GCSqGSIb3DQEBBQUAMHUxCzAJBgNV
BAYTAlVTMREwDwYDVQQIEwhWaXJnaW5pYTEQMA4GA1UEBxMHRmFpcmZheDERMA8G
A1UEChMIWm9yay5vcmcxEDAOBgNVBAMTB1Jvb3QgQ0ExHDAaBgkqhkiG9w0BCQEW
DXJvb3RAem9yay5vcmcwHhcNMTUwNDIwMTYwNjIzWhcNMTUwNTIwMTYwNjIzWjB1
MQswCQYDVQQGEwJVUzERMA8GA1UECBMIVmlyZ2luaWExEDAOBgNVBAcTB0ZhaXJm
YXgxETAPBgNVBAoTCFpvcmsub3JnMRAwDgYDVQQDEwdSb290IENBMRwwGgYJKoZI
hvcNAQkBFg1yb290QHpvcmsub3JnMIIBIjANBgkqhkiG9w0BAQEFAAOCAQ8AMIIB
CgKCAQEAravsBbARcPC/kynth6eKbbpcIwYdDK6OxwHTbGPFRLpE/f9qLiGEs9xE
/h4tqWZzwr/ayWg8cov+ZeFilVck9Y4i7cIqjSmzfKYwjeQCcFW9MJDXY8c27S29
90Q9Ol2JDDs3VTkBLdmgvncRJ2NA3e+Qis2XQ++THCmLCxpU1SwTY3nPImcxv8gK
KlRPkqz8jbXUavAgmUfOsraHG3n6pXcLh6YqXEWyz3sKdD4/2UMotInoRX238j8o
dpRHSe/3uq9Mft24P7V4viwpFGvlLuZoAPoQ/xQbrsGqeA1oXbYjNvW8N+wThkIP
9HWHV4SlXSrUknaTT7sdj+tX48hzoQIDAQABo4IBCDCCAQQwDAYDVR0TBAUwAwEB
/zAdBgNVHQ4EFgQUz5xApweyEUgmYMfwX8hahLhqYMwwgacGA1UdIwSBnzCBnIAU
z5xApweyEUgmYMfwX8hahLhqYMyheaR3MHUxCzAJBgNVBAYTAlVTMREwDwYDVQQI
EwhWaXJnaW5pYTEQMA4GA1UEBxMHRmFpcmZheDERMA8GA1UEChMIWm9yay5vcmcx
EDAOBgNVBAMTB1Jvb3QgQ0ExHDAaBgkqhkiG9w0BCQEWDXJvb3RAem9yay5vcmeC
CQDi610fSopBczArBgNVHR8EJDAiMCCgHqAchhpodHRwOi8vZWFzeXNzbC5jb20v
Y3JsLnBlbTANBgkqhkiG9w0BAQUFAAOCAQEAclkYWgQd3zOc8e0MS+MnfCihfbk7
kQo0y5XLNT0dJXLKrbRAu3TeYJhl2Qzn4zX6hmVuS1tjq0NXKZg+vlkvs6cIE/3d
tgF6P+LwAVjmirY88ubO+Bpw9jxlREHKdo9PCJ/Q3tW9sLk3DmfcbcYCqAq/Hh4s
jDizWJlidQM0YDbB/ywxMXppri6y+WjG0iYjmLKY3+j8Xu4aZazthkbwnAfoTpHN
Fn8suSEaWIXd16e/Hbjq4xDZ5KcocE0yS+Fs9INHz4AfUmtX2/hnUQNjueektXQX
j47QpkWAXDSgQdD9YdbswWaeL/3DpnOR+4C0zKC6giox1bya0y0E6NZpDQ==
-----END CERTIFICATE-----
