Certificate:
    Data:
        Version: 3 (0x2)
        Serial Number: 2 (0x2)
    Signature Algorithm: sha1WithRSAEncryption
        Issuer: C=US, ST=Virginia, L=Fairfax, O=Zork.org, CN=Root CA/emailAddress=root@zork.org
        Validity
            Not Before: Apr 14 16:41:10 2015 GMT
            Not After : Apr 13 16:41:10 2016 GMT
        Subject: C=US, ST=Virginia, L=Fairfax, O=Zork.org, CN=shell.zork.org/emailAddress=shell@zork.org
        Subject Public Key Info:
            Public Key Algorithm: rsaEncryption
                Public-Key: (1024 bit)
                Modulus:
                    00:f3:0c:84:4f:60:eb:0e:68:f8:28:7b:25:d9:94:
                    5c:6b:cc:9a:87:53:f2:4b:b7:d8:7c:eb:5a:35:c8:
                    51:ee:c1:b2:3b:54:fc:d9:f5:8c:9c:a4:e7:32:7e:
                    33:fb:7b:24:6b:0a:49:e9:e2:86:bc:72:f4:60:4d:
                    cd:2e:6f:05:26:65:41:42:90:0c:95:ff:f7:4b:8a:
                    68:ec:5b:ee:99:86:64:ae:56:31:5c:f8:7b:4b:ea:
                    6a:61:14:58:2b:f1:74:9c:42:7f:c5:f3:71:05:0e:
                    14:76:60:5b:f4:e0:69:bd:f5:f6:9a:19:d5:90:c0:
                    f5:90:02:dc:b1:5c:bb:09:85
                Exponent: 65537 (0x10001)
        X509v3 extensions:
            X509v3 Basic Constraints: 
                CA:FALSE
            X509v3 Subject Alternative Name: 
                email:shell@zork.org
    Signature Algorithm: sha1WithRSAEncryption
         5f:91:2a:70:c9:27:12:1f:29:6b:b0:5d:71:42:17:64:65:15:
         50:d7:7e:2f:81:b6:f4:da:4e:bc:89:dc:0c:dc:49:b2:3d:40:
         72:e4:9f:0c:a6:51:95:ed:b2:10:91:1b:98:2b:09:04:4b:6f:
         00:6b:38:53:a1:38:68:4d:33:0b:bf:3f:89:a2:0f:dd:94:ea:
         0b:c3:d5:bb:78:86:64:5d:f3:4d:9c:21:c7:eb:b0:bf:f0:f4:
         8f:c3:c6:4d:46:72:36:63:14:89:a7:78:d9:01:ad:8a:13:5a:
         a3:5c:a6:d0:d2:7e:91:f5:4f:22:48:93:79:13:67:84:62:db:
         eb:86:28:46:e5:07:20:d0:fa:98:02:1a:65:e2:6d:6e:c1:b8:
         71:4f:93:5a:06:68:3f:b0:2e:7f:d9:4e:53:15:25:78:51:07:
         a6:ee:d0:7f:c9:02:0b:df:6d:5e:4b:84:0e:23:34:67:85:f7:
         64:d5:18:fe:d7:59:a9:ff:34:25:a7:4b:c5:b6:84:cf:a6:fb:
         36:ac:ca:b2:4b:89:6d:24:16:c5:c7:36:72:d0:c0:af:f3:64:
         00:92:18:b3:cf:ce:e2:79:6e:14:98:e4:fc:62:ad:df:68:ce:
         20:a8:c9:58:c4:02:3f:0a:e8:7b:e1:4e:a4:46:c1:53:95:bf:
         b0:8d:02:f0
-----BEGIN CERTIFICATE-----
MIIDETCCAfmgAwIBAgIBAjANBgkqhkiG9w0BAQUFADB1MQswCQYDVQQGEwJVUzER
MA8GA1UECBMIVmlyZ2luaWExEDAOBgNVBAcTB0ZhaXJmYXgxETAPBgNVBAoTCFpv
cmsub3JnMRAwDgYDVQQDEwdSb290IENBMRwwGgYJKoZIhvcNAQkBFg1yb290QHpv
cmsub3JnMB4XDTE1MDQxNDE2NDExMFoXDTE2MDQxMzE2NDExMFowfTELMAkGA1UE
BhMCVVMxETAPBgNVBAgTCFZpcmdpbmlhMRAwDgYDVQQHEwdGYWlyZmF4MREwDwYD
VQQKEwhab3JrLm9yZzEXMBUGA1UEAxMOc2hlbGwuem9yay5vcmcxHTAbBgkqhkiG
9w0BCQEWDnNoZWxsQHpvcmsub3JnMIGfMA0GCSqGSIb3DQEBAQUAA4GNADCBiQKB
gQDzDIRPYOsOaPgoeyXZlFxrzJqHU/JLt9h861o1yFHuwbI7VPzZ9YycpOcyfjP7
eyRrCknp4oa8cvRgTc0ubwUmZUFCkAyV//dLimjsW+6ZhmSuVjFc+HtL6mphFFgr
8XScQn/F83EFDhR2YFv04Gm99faaGdWQwPWQAtyxXLsJhQIDAQABoygwJjAJBgNV
HRMEAjAAMBkGA1UdEQQSMBCBDnNoZWxsQHpvcmsub3JnMA0GCSqGSIb3DQEBBQUA
A4IBAQBfkSpwyScSHylrsF1xQhdkZRVQ134vgbb02k68idwM3EmyPUBy5J8MplGV
7bIQkRuYKwkES28AazhToThoTTMLvz+Jog/dlOoLw9W7eIZkXfNNnCHH67C/8PSP
w8ZNRnI2YxSJp3jZAa2KE1qjXKbQ0n6R9U8iSJN5E2eEYtvrhihG5Qcg0PqYAhpl
4m1uwbhxT5NaBmg/sC5/2U5TFSV4UQem7tB/yQIL321eS4QOIzRnhfdk1Rj+11mp
/zQlp0vFtoTPpvs2rMqyS4ltJBbFxzZy0MCv82QAkhizz87ieW4UmOT8Yq3faM4g
qMlYxAI/Cuh74U6kRsFTlb+wjQLw
-----END CERTIFICATE-----
-----BEGIN CERTIFICATE-----
MIIESDCCAzCgAwIBAgIJAOFUT1LTbFgPMA0GCSqGSIb3DQEBBQUAMHUxCzAJBgNV
BAYTAlVTMREwDwYDVQQIEwhWaXJnaW5pYTEQMA4GA1UEBxMHRmFpcmZheDERMA8G
A1UEChMIWm9yay5vcmcxEDAOBgNVBAMTB1Jvb3QgQ0ExHDAaBgkqhkiG9w0BCQEW
DXJvb3RAem9yay5vcmcwHhcNMTUwNDE0MTYwNzMwWhcNMTUwNTE0MTYwNzMwWjB1
MQswCQYDVQQGEwJVUzERMA8GA1UECBMIVmlyZ2luaWExEDAOBgNVBAcTB0ZhaXJm
YXgxETAPBgNVBAoTCFpvcmsub3JnMRAwDgYDVQQDEwdSb290IENBMRwwGgYJKoZI
hvcNAQkBFg1yb290QHpvcmsub3JnMIIBIjANBgkqhkiG9w0BAQEFAAOCAQ8AMIIB
CgKCAQEAoB1TvOOAF+i5Y+ovTPOEHzq/31TXmbbBNYYeRoRRjlPMUkZ2zWPqSJO0
ZXQdoHTVOaS023Q5f0Lwclck+I208/bxG9Ll1lN+pVlxnB00hFqcRiLMe7UEZifd
74lruPXrzVn5Y3WZoAXrYnC9b3HdkrjNgIF/VxOpfAw0Oc5n5iOUZHTIxAO0KQr5
NKD1+5TCn0Vt3ab9Wep8aNSbkwAOPGyJChEdl4BMDBT3iSMAmOXz1czGa/XAerzo
23YbxkhvT17JZzxBoWgDrF23EKxCJfZ2e1OHu4gpJiXRF4VFXQBxPakHp9kvQQ9q
Uh5rbT7f3EIrY4BAISsuy9ETVAT4bQIDAQABo4HaMIHXMAwGA1UdEwQFMAMBAf8w
HQYDVR0OBBYEFO7W5XOFDdQzZcfGbkEoEINeYYfGMIGnBgNVHSMEgZ8wgZyAFO7W
5XOFDdQzZcfGbkEoEINeYYfGoXmkdzB1MQswCQYDVQQGEwJVUzERMA8GA1UECBMI
VmlyZ2luaWExEDAOBgNVBAcTB0ZhaXJmYXgxETAPBgNVBAoTCFpvcmsub3JnMRAw
DgYDVQQDEwdSb290IENBMRwwGgYJKoZIhvcNAQkBFg1yb290QHpvcmsub3JnggkA
4VRPUtNsWA8wDQYJKoZIhvcNAQEFBQADggEBAB/G0iDHJsSPVffoH3d+Z0nBncmf
0hY5TMDEshSYhnXF4hNMbWH5Ea86HkGjdWXyFzM+RFEYtx2uQkG8WyepgifMzUTr
Koll4WV48JoEcTuIumrMhjXeWnmcKUndx+bxn6QxmbxWx0JMiJC0aRb5QhuhlOWg
MiS1Yclfs6c+jlihAjy0WAA1gM9zjnnFUK8tPCdtFm/4b1BQ3H33ftuNHC600fWp
GjKeWHAeXKWq7E2gggSAfvw3X/TWlxM0iEgExNfMHqbrIu299V86+ictVhJ2hKku
vBBURyZJj9VwZlC2FF83utYEMohzI/hH2JTIYSQpHGCbB/QYvvy3O9ya3HM=
-----END CERTIFICATE-----
