Certificate:
    Data:
        Version: 3 (0x2)
        Serial Number: 1 (0x1)
    Signature Algorithm: sha1WithRSAEncryption
        Issuer: C=US, ST=Virginia, L=Fairfax, O=Zork.org, CN=Root CA/emailAddress=root@zork.org
        Validity
            Not Before: Apr 20 16:08:12 2015 GMT
            Not After : Apr 19 16:08:12 2016 GMT
        Subject: C=US, ST=Virginia, L=Fairfax, O=Zork.org, CN=splat.zork.org/emailAddress=splat@zork.org
        Subject Public Key Info:
            Public Key Algorithm: rsaEncryption
                Public-Key: (1024 bit)
                Modulus:
                    00:a8:a1:16:20:0c:ec:bb:34:d0:2e:59:0d:d1:18:
                    c6:70:4f:eb:04:3f:c6:81:26:ee:2c:0a:ad:fb:28:
                    93:e3:be:16:36:fb:32:50:6f:4a:ca:21:48:ce:7e:
                    52:75:dc:9a:0d:28:9c:b5:15:27:66:10:32:c3:ce:
                    e2:42:ea:cb:f6:11:f5:7f:fa:eb:77:de:ab:a2:8b:
                    31:e4:d2:58:ec:ef:f5:f9:92:f6:c6:0b:f2:4d:0e:
                    08:af:44:7f:97:87:ec:07:62:a1:33:3f:c0:3e:ba:
                    7c:7a:e3:5a:da:68:56:ca:07:c9:b3:b3:11:39:d5:
                    f2:87:59:f2:3f:cd:ea:c2:31
                Exponent: 65537 (0x10001)
        X509v3 extensions:
            X509v3 Basic Constraints: 
                CA:FALSE
            X509v3 Subject Alternative Name: 
                DNS:splat.zork.org, email:splat@zork.org
            X509v3 CRL Distribution Points: 

                Full Name:
                  URI:http://easyssl.com/crl.pem

    Signature Algorithm: sha1WithRSAEncryption
         9c:c8:cf:e4:a9:51:8e:58:0c:e0:21:3c:c7:0e:71:b9:e9:98:
         d8:16:25:70:ab:08:c7:e9:19:2c:a8:79:ca:5e:63:f4:a5:a7:
         1f:a9:de:de:a9:89:8a:43:4b:3c:83:8b:18:77:36:e2:0a:ec:
         2d:d4:4e:96:f0:ae:59:79:09:8c:73:d5:d9:01:27:3b:a4:f1:
         13:f8:5d:52:7c:43:f0:f3:2c:ba:00:bc:23:2d:cc:1a:da:6f:
         fe:23:d8:52:e9:36:67:07:71:d9:b7:33:8c:be:0a:b6:36:41:
         f2:1f:aa:7d:23:e1:a2:51:64:55:50:c8:06:80:5a:2d:c0:ac:
         40:74:b2:05:bc:c1:1d:66:0e:9f:47:6b:49:26:b7:a6:74:d9:
         13:e2:b7:d0:22:4f:20:e7:b5:5a:0e:b6:08:60:6e:64:8e:cc:
         14:f8:6f:ce:13:ca:91:9d:c5:62:74:da:c5:e0:48:0f:8a:7c:
         9c:87:17:28:89:d1:a3:33:92:bf:e7:95:6a:8c:32:ff:d6:b8:
         b0:c0:f8:c1:7d:1d:be:ac:84:3e:45:89:29:e6:f7:3e:7a:e5:
         f9:2e:96:56:9e:c4:c0:62:71:eb:b8:1a:17:c4:e8:4e:d4:0d:
         a8:ef:ee:a6:ce:39:38:46:8f:1c:a9:e1:04:00:de:77:63:f2:
         e5:95:e3:1c
-----BEGIN CERTIFICATE-----
MIIDTjCCAjagAwIBAgIBATANBgkqhkiG9w0BAQUFADB1MQswCQYDVQQGEwJVUzER
MA8GA1UECBMIVmlyZ2luaWExEDAOBgNVBAcTB0ZhaXJmYXgxETAPBgNVBAoTCFpv
cmsub3JnMRAwDgYDVQQDEwdSb290IENBMRwwGgYJKoZIhvcNAQkBFg1yb290QHpv
cmsub3JnMB4XDTE1MDQyMDE2MDgxMloXDTE2MDQxOTE2MDgxMlowfTELMAkGA1UE
BhMCVVMxETAPBgNVBAgTCFZpcmdpbmlhMRAwDgYDVQQHEwdGYWlyZmF4MREwDwYD
VQQKEwhab3JrLm9yZzEXMBUGA1UEAxMOc3BsYXQuem9yay5vcmcxHTAbBgkqhkiG
9w0BCQEWDnNwbGF0QHpvcmsub3JnMIGfMA0GCSqGSIb3DQEBAQUAA4GNADCBiQKB
gQCooRYgDOy7NNAuWQ3RGMZwT+sEP8aBJu4sCq37KJPjvhY2+zJQb0rKIUjOflJ1
3JoNKJy1FSdmEDLDzuJC6sv2EfV/+ut33quiizHk0ljs7/X5kvbGC/JNDgivRH+X
h+wHYqEzP8A+unx641raaFbKB8mzsxE51fKHWfI/zerCMQIDAQABo2UwYzAJBgNV
HRMEAjAAMCkGA1UdEQQiMCCCDnNwbGF0Lnpvcmsub3JngQ5zcGxhdEB6b3JrLm9y
ZzArBgNVHR8EJDAiMCCgHqAchhpodHRwOi8vZWFzeXNzbC5jb20vY3JsLnBlbTAN
BgkqhkiG9w0BAQUFAAOCAQEAnMjP5KlRjlgM4CE8xw5xuemY2BYlcKsIx+kZLKh5
yl5j9KWnH6ne3qmJikNLPIOLGHc24grsLdROlvCuWXkJjHPV2QEnO6TxE/hdUnxD
8PMsugC8Iy3MGtpv/iPYUuk2Zwdx2bczjL4KtjZB8h+qfSPholFkVVDIBoBaLcCs
QHSyBbzBHWYOn0drSSa3pnTZE+K30CJPIOe1Wg62CGBuZI7MFPhvzhPKkZ3FYnTa
xeBID4p8nIcXKInRozOSv+eVaowy/9a4sMD4wX0dvqyEPkWJKeb3Pnrl+S6WVp7E
wGJx67gaF8ToTtQNqO/ups45OEaPHKnhBADed2Py5ZXjHA==
-----END CERTIFICATE-----
-----BEGIN CERTIFICATE-----
MIIEdzCCA1+gAwIBAgIJAOLrXR9KikFzMA0GCSqGSIb3DQEBBQUAMHUxCzAJBgNV
BAYTAlVTMREwDwYDVQQIEwhWaXJnaW5pYTEQMA4GA1UEBxMHRmFpcmZheDERMA8G
A1UEChMIWm9yay5vcmcxEDAOBgNVBAMTB1Jvb3QgQ0ExHDAaBgkqhkiG9w0BCQEW
DXJvb3RAem9yay5vcmcwHhcNMTUwNDIwMTYwNjIzWhcNMTUwNTIwMTYwNjIzWjB1
MQswCQYDVQQGEwJVUzERMA8GA1UECBMIVmlyZ2luaWExEDAOBgNVBAcTB0ZhaXJm
YXgxETAPBgNVBAoTCFpvcmsub3JnMRAwDgYDVQQDEwdSb290IENBMRwwGgYJKoZI
hvcNAQkBFg1yb290QHpvcmsub3JnMIIBIjANBgkqhkiG9w0BAQEFAAOCAQ8AMIIB
CgKCAQEAravsBbARcPC/kynth6eKbbpcIwYdDK6OxwHTbGPFRLpE/f9qLiGEs9xE
/h4tqWZzwr/ayWg8cov+ZeFilVck9Y4i7cIqjSmzfKYwjeQCcFW9MJDXY8c27S29
90Q9Ol2JDDs3VTkBLdmgvncRJ2NA3e+Qis2XQ++THCmLCxpU1SwTY3nPImcxv8gK
KlRPkqz8jbXUavAgmUfOsraHG3n6pXcLh6YqXEWyz3sKdD4/2UMotInoRX238j8o
dpRHSe/3uq9Mft24P7V4viwpFGvlLuZoAPoQ/xQbrsGqeA1oXbYjNvW8N+wThkIP
9HWHV4SlXSrUknaTT7sdj+tX48hzoQIDAQABo4IBCDCCAQQwDAYDVR0TBAUwAwEB
/zAdBgNVHQ4EFgQUz5xApweyEUgmYMfwX8hahLhqYMwwgacGA1UdIwSBnzCBnIAU
z5xApweyEUgmYMfwX8hahLhqYMyheaR3MHUxCzAJBgNVBAYTAlVTMREwDwYDVQQI
EwhWaXJnaW5pYTEQMA4GA1UEBxMHRmFpcmZheDERMA8GA1UEChMIWm9yay5vcmcx
EDAOBgNVBAMTB1Jvb3QgQ0ExHDAaBgkqhkiG9w0BCQEWDXJvb3RAem9yay5vcmeC
CQDi610fSopBczArBgNVHR8EJDAiMCCgHqAchhpodHRwOi8vZWFzeXNzbC5jb20v
Y3JsLnBlbTANBgkqhkiG9w0BAQUFAAOCAQEAclkYWgQd3zOc8e0MS+MnfCihfbk7
kQo0y5XLNT0dJXLKrbRAu3TeYJhl2Qzn4zX6hmVuS1tjq0NXKZg+vlkvs6cIE/3d
tgF6P+LwAVjmirY88ubO+Bpw9jxlREHKdo9PCJ/Q3tW9sLk3DmfcbcYCqAq/Hh4s
jDizWJlidQM0YDbB/ywxMXppri6y+WjG0iYjmLKY3+j8Xu4aZazthkbwnAfoTpHN
Fn8suSEaWIXd16e/Hbjq4xDZ5KcocE0yS+Fs9INHz4AfUmtX2/hnUQNjueektXQX
j47QpkWAXDSgQdD9YdbswWaeL/3DpnOR+4C0zKC6giox1bya0y0E6NZpDQ==
-----END CERTIFICATE-----
