Certificate:
    Data:
        Version: 3 (0x2)
        Serial Number: 1 (0x1)
    Signature Algorithm: sha1WithRSAEncryption
        Issuer: C=US, ST=Virginia, L=Fairfax, O=Zork.org, CN=Root CA/emailAddress=root@zork.org
        Validity
            Not Before: Apr 14 16:26:20 2015 GMT
            Not After : Apr 13 16:26:20 2016 GMT
        Subject: C=US, ST=Virginia, L=Fairfax, O=Zork.org, OU=Server Division, CN=Server CA/emailAddress=serverca@zork.org
        Subject Public Key Info:
            Public Key Algorithm: rsaEncryption
                Public-Key: (2048 bit)
                Modulus:
                    00:e6:35:95:b8:f9:9f:e8:fe:81:12:ec:39:46:f6:
                    65:01:6d:f7:56:f3:91:06:62:4b:23:a2:b2:8c:97:
                    f4:0c:1d:76:bf:4b:a3:ef:a7:e5:c5:5e:4a:69:29:
                    f4:49:b9:b2:32:91:4f:94:d5:b6:8c:72:08:86:e6:
                    84:bc:31:d0:9e:36:86:58:30:ae:92:ad:57:58:cf:
                    42:44:0b:fd:b8:ef:01:7f:7b:5c:cc:7e:b5:b1:8c:
                    d0:40:12:a2:c2:a0:96:51:22:ac:38:41:34:7d:a5:
                    1f:87:f8:e4:aa:dd:0d:8f:5a:b7:5a:c8:0f:c0:f4:
                    23:6d:f8:40:03:69:ab:56:c9:50:1f:5c:8c:7a:53:
                    8a:fd:4c:42:02:09:c0:48:85:32:d9:f7:c1:31:9d:
                    cc:b2:8a:28:0c:44:76:48:a9:9a:0b:71:22:95:7c:
                    ea:a5:70:59:78:8a:e7:32:9d:de:ff:ae:f7:26:01:
                    08:83:34:6a:d2:28:b5:ef:40:9c:39:32:c0:77:93:
                    76:24:da:de:4f:b1:f3:68:59:29:34:92:49:9d:ed:
                    a2:b6:82:82:ce:c8:44:5c:e2:a8:a6:cc:4b:93:9b:
                    7e:27:76:03:23:a4:80:c7:c8:59:86:fb:f1:02:aa:
                    7f:43:2c:f5:fd:0e:81:df:6c:d2:9f:ae:3e:45:36:
                    c4:ef
                Exponent: 65537 (0x10001)
        X509v3 extensions:
            X509v3 Basic Constraints: 
                CA:TRUE
            X509v3 Subject Key Identifier: 
                3B:BA:FA:4F:F0:E5:39:5D:63:27:19:07:DD:65:1D:15:A1:C4:65:EC
            X509v3 Authority Key Identifier: 
                keyid:EE:D6:E5:73:85:0D:D4:33:65:C7:C6:6E:41:28:10:83:5E:61:87:C6
                DirName:/C=US/ST=Virginia/L=Fairfax/O=Zork.org/CN=Root CA/emailAddress=root@zork.org
                serial:E1:54:4F:52:D3:6C:58:0F

    Signature Algorithm: sha1WithRSAEncryption
         73:82:62:ee:53:9f:cf:ba:35:5d:a5:9c:b3:b5:0f:f1:39:83:
         b4:0c:1f:87:e0:e0:80:59:c4:97:8d:09:6c:d4:c6:6c:0b:ab:
         79:e3:11:fd:7c:3d:f8:e1:b2:14:3d:ce:2d:f1:86:3f:1d:eb:
         9d:ce:53:b5:40:a4:b9:fc:05:38:53:36:20:ce:41:9d:66:e2:
         27:ea:3a:64:a6:2f:16:de:37:e4:cb:ea:07:c8:ce:75:58:98:
         42:a2:54:f0:27:3e:ea:66:f2:ed:de:3f:0b:b4:3c:fb:e1:f1:
         48:ce:35:b0:ec:3e:ea:9d:42:21:76:aa:49:8d:56:4a:b6:4b:
         2a:f3:d8:95:a8:60:1c:93:05:81:6b:a9:a4:76:9d:b4:94:54:
         0d:d3:ba:10:33:8a:a4:9b:06:71:8d:03:de:40:aa:b3:c4:2c:
         ca:2b:b2:e5:38:2e:83:0b:b4:d7:0f:a0:3a:de:98:78:a7:e3:
         b7:08:a7:c3:5c:eb:64:89:58:97:e2:9b:52:9e:3f:84:87:f5:
         81:4c:7d:77:99:5b:33:c0:fa:0e:a1:f9:84:37:b6:01:6e:c1:
         2c:59:14:09:43:05:6c:61:80:42:d7:ba:5b:34:0c:5c:01:0e:
         0a:09:37:bf:fe:a4:e8:b3:52:97:ee:a9:d7:92:ee:81:a7:ac:
         35:da:43:ab
-----BEGIN CERTIFICATE-----
MIIEYTCCA0mgAwIBAgIBATANBgkqhkiG9w0BAQUFADB1MQswCQYDVQQGEwJVUzER
MA8GA1UECBMIVmlyZ2luaWExEDAOBgNVBAcTB0ZhaXJmYXgxETAPBgNVBAoTCFpv
cmsub3JnMRAwDgYDVQQDEwdSb290IENBMRwwGgYJKoZIhvcNAQkBFg1yb290QHpv
cmsub3JnMB4XDTE1MDQxNDE2MjYyMFoXDTE2MDQxMzE2MjYyMFowgZUxCzAJBgNV
BAYTAlVTMREwDwYDVQQIEwhWaXJnaW5pYTEQMA4GA1UEBxMHRmFpcmZheDERMA8G
A1UEChMIWm9yay5vcmcxGDAWBgNVBAsTD1NlcnZlciBEaXZpc2lvbjESMBAGA1UE
AxMJU2VydmVyIENBMSAwHgYJKoZIhvcNAQkBFhFzZXJ2ZXJjYUB6b3JrLm9yZzCC
ASIwDQYJKoZIhvcNAQEBBQADggEPADCCAQoCggEBAOY1lbj5n+j+gRLsOUb2ZQFt
91bzkQZiSyOisoyX9Awddr9Lo++n5cVeSmkp9Em5sjKRT5TVtoxyCIbmhLwx0J42
hlgwrpKtV1jPQkQL/bjvAX97XMx+tbGM0EASosKgllEirDhBNH2lH4f45KrdDY9a
t1rID8D0I234QANpq1bJUB9cjHpTiv1MQgIJwEiFMtn3wTGdzLKKKAxEdkipmgtx
IpV86qVwWXiK5zKd3v+u9yYBCIM0atIote9AnDkywHeTdiTa3k+x82hZKTSSSZ3t
oraCgs7IRFziqKbMS5Obfid2AyOkgMfIWYb78QKqf0Ms9f0Ogd9s0p+uPkU2xO8C
AwEAAaOB2jCB1zAMBgNVHRMEBTADAQH/MB0GA1UdDgQWBBQ7uvpP8OU5XWMnGQfd
ZR0VocRl7DCBpwYDVR0jBIGfMIGcgBTu1uVzhQ3UM2XHxm5BKBCDXmGHxqF5pHcw
dTELMAkGA1UEBhMCVVMxETAPBgNVBAgTCFZpcmdpbmlhMRAwDgYDVQQHEwdGYWly
ZmF4MREwDwYDVQQKEwhab3JrLm9yZzEQMA4GA1UEAxMHUm9vdCBDQTEcMBoGCSqG
SIb3DQEJARYNcm9vdEB6b3JrLm9yZ4IJAOFUT1LTbFgPMA0GCSqGSIb3DQEBBQUA
A4IBAQBzgmLuU5/PujVdpZyztQ/xOYO0DB+H4OCAWcSXjQls1MZsC6t54xH9fD34
4bIUPc4t8YY/HeudzlO1QKS5/AU4UzYgzkGdZuIn6jpkpi8W3jfky+oHyM51WJhC
olTwJz7qZvLt3j8LtDz74fFIzjWw7D7qnUIhdqpJjVZKtksq89iVqGAckwWBa6mk
dp20lFQN07oQM4qkmwZxjQPeQKqzxCzKK7LlOC6DC7TXD6A63ph4p+O3CKfDXOtk
iViX4ptSnj+Eh/WBTH13mVszwPoOofmEN7YBbsEsWRQJQwVsYYBC17pbNAxcAQ4K
CTe//qTos1KX7qnXku6Bp6w12kOr
-----END CERTIFICATE-----
-----BEGIN CERTIFICATE-----
MIIESDCCAzCgAwIBAgIJAOFUT1LTbFgPMA0GCSqGSIb3DQEBBQUAMHUxCzAJBgNV
BAYTAlVTMREwDwYDVQQIEwhWaXJnaW5pYTEQMA4GA1UEBxMHRmFpcmZheDERMA8G
A1UEChMIWm9yay5vcmcxEDAOBgNVBAMTB1Jvb3QgQ0ExHDAaBgkqhkiG9w0BCQEW
DXJvb3RAem9yay5vcmcwHhcNMTUwNDE0MTYwNzMwWhcNMTUwNTE0MTYwNzMwWjB1
MQswCQYDVQQGEwJVUzERMA8GA1UECBMIVmlyZ2luaWExEDAOBgNVBAcTB0ZhaXJm
YXgxETAPBgNVBAoTCFpvcmsub3JnMRAwDgYDVQQDEwdSb290IENBMRwwGgYJKoZI
hvcNAQkBFg1yb290QHpvcmsub3JnMIIBIjANBgkqhkiG9w0BAQEFAAOCAQ8AMIIB
CgKCAQEAoB1TvOOAF+i5Y+ovTPOEHzq/31TXmbbBNYYeRoRRjlPMUkZ2zWPqSJO0
ZXQdoHTVOaS023Q5f0Lwclck+I208/bxG9Ll1lN+pVlxnB00hFqcRiLMe7UEZifd
74lruPXrzVn5Y3WZoAXrYnC9b3HdkrjNgIF/VxOpfAw0Oc5n5iOUZHTIxAO0KQr5
NKD1+5TCn0Vt3ab9Wep8aNSbkwAOPGyJChEdl4BMDBT3iSMAmOXz1czGa/XAerzo
23YbxkhvT17JZzxBoWgDrF23EKxCJfZ2e1OHu4gpJiXRF4VFXQBxPakHp9kvQQ9q
Uh5rbT7f3EIrY4BAISsuy9ETVAT4bQIDAQABo4HaMIHXMAwGA1UdEwQFMAMBAf8w
HQYDVR0OBBYEFO7W5XOFDdQzZcfGbkEoEINeYYfGMIGnBgNVHSMEgZ8wgZyAFO7W
5XOFDdQzZcfGbkEoEINeYYfGoXmkdzB1MQswCQYDVQQGEwJVUzERMA8GA1UECBMI
VmlyZ2luaWExEDAOBgNVBAcTB0ZhaXJmYXgxETAPBgNVBAoTCFpvcmsub3JnMRAw
DgYDVQQDEwdSb290IENBMRwwGgYJKoZIhvcNAQkBFg1yb290QHpvcmsub3JnggkA
4VRPUtNsWA8wDQYJKoZIhvcNAQEFBQADggEBAB/G0iDHJsSPVffoH3d+Z0nBncmf
0hY5TMDEshSYhnXF4hNMbWH5Ea86HkGjdWXyFzM+RFEYtx2uQkG8WyepgifMzUTr
Koll4WV48JoEcTuIumrMhjXeWnmcKUndx+bxn6QxmbxWx0JMiJC0aRb5QhuhlOWg
MiS1Yclfs6c+jlihAjy0WAA1gM9zjnnFUK8tPCdtFm/4b1BQ3H33ftuNHC600fWp
GjKeWHAeXKWq7E2gggSAfvw3X/TWlxM0iEgExNfMHqbrIu299V86+ictVhJ2hKku
vBBURyZJj9VwZlC2FF83utYEMohzI/hH2JTIYSQpHGCbB/QYvvy3O9ya3HM=
-----END CERTIFICATE-----
