Certificate:
    Data:
        Version: 3 (0x2)
        Serial Number: 1 (0x1)
    Signature Algorithm: sha1WithRSAEncryption
        Issuer: C=US, ST=Virginia, L=Fairfax, O=Zork.org, OU=Server Division, CN=Server CA/emailAddress=serverca@zork.org
        Validity
            Not Before: Apr 14 16:35:50 2015 GMT
            Not After : Apr 13 16:35:50 2016 GMT
        Subject: C=US, ST=Virginia, L=Fairfax, O=Zork.org, CN=splat.zork.org/emailAddress=splat@zork.org
        Subject Public Key Info:
            Public Key Algorithm: rsaEncryption
                Public-Key: (1024 bit)
                Modulus:
                    00:9c:9d:b4:c5:94:d6:55:04:b5:72:e2:07:77:16:
                    28:95:e5:02:70:8d:19:1e:18:91:50:97:8b:a5:a8:
                    db:e2:ec:d5:0f:9b:7f:12:e1:72:77:2c:f5:08:1c:
                    bc:58:f2:5d:1f:df:99:8a:f6:7a:21:e7:35:e3:c2:
                    25:0f:b8:94:ed:ab:73:89:3a:a2:81:5a:12:62:83:
                    52:3f:9b:29:61:c6:77:f6:f6:84:21:71:e7:c1:16:
                    b1:05:bc:6a:91:06:30:2e:22:cb:2a:75:27:d4:be:
                    81:16:58:e6:02:b3:9d:c3:5c:4d:fe:e8:73:bf:70:
                    06:21:39:11:e2:2d:bd:ed:d5
                Exponent: 65537 (0x10001)
        X509v3 extensions:
            X509v3 Basic Constraints: 
                CA:FALSE
            X509v3 Subject Alternative Name: 
                DNS:splat.zork.org, email:splat@zork.org
    Signature Algorithm: sha1WithRSAEncryption
         85:37:f2:7c:48:51:8d:93:c4:e4:92:3f:37:87:54:8c:f0:2c:
         16:3b:0a:b2:62:34:a4:3d:99:9b:c6:2b:33:06:f2:fd:99:de:
         3c:ae:9e:96:ce:7d:40:c1:b3:dd:6c:9b:6a:19:b8:e7:5f:af:
         51:2e:b5:a9:c1:03:21:20:a2:c4:7d:49:29:7f:b4:d5:85:80:
         91:fb:7f:fd:75:0d:ac:53:1c:8c:93:3b:0f:84:22:c7:c2:92:
         de:d5:59:86:cc:3c:fc:b2:bf:e6:4c:e0:bf:05:7e:84:7d:46:
         5b:3a:01:a5:40:3b:9d:a4:31:17:0b:55:2d:d2:6c:2d:ce:ec:
         a7:50:79:13:8f:b6:48:f9:7a:95:2d:4e:60:c3:a2:34:a6:e3:
         da:70:15:94:e5:96:9f:ef:b4:ac:0c:6e:9f:35:a8:d7:3b:27:
         4e:b2:dc:a3:36:53:cb:a9:04:1d:e3:b6:23:f0:3b:44:35:f9:
         e7:4f:9d:ea:c0:0b:62:29:ad:cd:8a:8f:65:91:36:76:8b:54:
         f9:24:12:3e:6c:6b:d7:9e:7d:83:00:6a:9d:da:6b:bc:fd:c6:
         e5:24:7b:9f:18:91:b0:95:7e:a7:31:70:9f:92:09:e5:bc:b2:
         74:fa:6f:70:2e:e6:6d:8c:ae:c1:44:32:e8:b7:58:9b:85:6a:
         60:d1:bc:fd
-----BEGIN CERTIFICATE-----
MIIDQjCCAiqgAwIBAgIBATANBgkqhkiG9w0BAQUFADCBlTELMAkGA1UEBhMCVVMx
ETAPBgNVBAgTCFZpcmdpbmlhMRAwDgYDVQQHEwdGYWlyZmF4MREwDwYDVQQKEwha
b3JrLm9yZzEYMBYGA1UECxMPU2VydmVyIERpdmlzaW9uMRIwEAYDVQQDEwlTZXJ2
ZXIgQ0ExIDAeBgkqhkiG9w0BCQEWEXNlcnZlcmNhQHpvcmsub3JnMB4XDTE1MDQx
NDE2MzU1MFoXDTE2MDQxMzE2MzU1MFowfTELMAkGA1UEBhMCVVMxETAPBgNVBAgT
CFZpcmdpbmlhMRAwDgYDVQQHEwdGYWlyZmF4MREwDwYDVQQKEwhab3JrLm9yZzEX
MBUGA1UEAxMOc3BsYXQuem9yay5vcmcxHTAbBgkqhkiG9w0BCQEWDnNwbGF0QHpv
cmsub3JnMIGfMA0GCSqGSIb3DQEBAQUAA4GNADCBiQKBgQCcnbTFlNZVBLVy4gd3
FiiV5QJwjRkeGJFQl4ulqNvi7NUPm38S4XJ3LPUIHLxY8l0f35mK9noh5zXjwiUP
uJTtq3OJOqKBWhJig1I/mylhxnf29oQhcefBFrEFvGqRBjAuIssqdSfUvoEWWOYC
s53DXE3+6HO/cAYhORHiLb3t1QIDAQABozgwNjAJBgNVHRMEAjAAMCkGA1UdEQQi
MCCCDnNwbGF0Lnpvcmsub3JngQ5zcGxhdEB6b3JrLm9yZzANBgkqhkiG9w0BAQUF
AAOCAQEAhTfyfEhRjZPE5JI/N4dUjPAsFjsKsmI0pD2Zm8YrMwby/ZnePK6els59
QMGz3Wybahm451+vUS61qcEDISCixH1JKX+01YWAkft//XUNrFMcjJM7D4Qix8KS
3tVZhsw8/LK/5kzgvwV+hH1GWzoBpUA7naQxFwtVLdJsLc7sp1B5E4+2SPl6lS1O
YMOiNKbj2nAVlOWWn++0rAxunzWo1zsnTrLcozZTy6kEHeO2I/A7RDX550+d6sAL
YimtzYqPZZE2dotU+SQSPmxr1559gwBqndprvP3G5SR7nxiRsJV+pzFwn5IJ5byy
dPpvcC7mbYyuwUQy6LdYm4VqYNG8/Q==
-----END CERTIFICATE-----
Certificate:
    Data:
        Version: 3 (0x2)
        Serial Number: 1 (0x1)
    Signature Algorithm: sha1WithRSAEncryption
        Issuer: C=US, ST=Virginia, L=Fairfax, O=Zork.org, CN=Root CA/emailAddress=root@zork.org
        Validity
            Not Before: Apr 14 16:26:20 2015 GMT
            Not After : Apr 13 16:26:20 2016 GMT
        Subject: C=US, ST=Virginia, L=Fairfax, O=Zork.org, OU=Server Division, CN=Server CA/emailAddress=serverca@zork.org
        Subject Public Key Info:
            Public Key Algorithm: rsaEncryption
                Public-Key: (2048 bit)
                Modulus:
                    00:e6:35:95:b8:f9:9f:e8:fe:81:12:ec:39:46:f6:
                    65:01:6d:f7:56:f3:91:06:62:4b:23:a2:b2:8c:97:
                    f4:0c:1d:76:bf:4b:a3:ef:a7:e5:c5:5e:4a:69:29:
                    f4:49:b9:b2:32:91:4f:94:d5:b6:8c:72:08:86:e6:
                    84:bc:31:d0:9e:36:86:58:30:ae:92:ad:57:58:cf:
                    42:44:0b:fd:b8:ef:01:7f:7b:5c:cc:7e:b5:b1:8c:
                    d0:40:12:a2:c2:a0:96:51:22:ac:38:41:34:7d:a5:
                    1f:87:f8:e4:aa:dd:0d:8f:5a:b7:5a:c8:0f:c0:f4:
                    23:6d:f8:40:03:69:ab:56:c9:50:1f:5c:8c:7a:53:
                    8a:fd:4c:42:02:09:c0:48:85:32:d9:f7:c1:31:9d:
                    cc:b2:8a:28:0c:44:76:48:a9:9a:0b:71:22:95:7c:
                    ea:a5:70:59:78:8a:e7:32:9d:de:ff:ae:f7:26:01:
                    08:83:34:6a:d2:28:b5:ef:40:9c:39:32:c0:77:93:
                    76:24:da:de:4f:b1:f3:68:59:29:34:92:49:9d:ed:
                    a2:b6:82:82:ce:c8:44:5c:e2:a8:a6:cc:4b:93:9b:
                    7e:27:76:03:23:a4:80:c7:c8:59:86:fb:f1:02:aa:
                    7f:43:2c:f5:fd:0e:81:df:6c:d2:9f:ae:3e:45:36:
                    c4:ef
                Exponent: 65537 (0x10001)
        X509v3 extensions:
            X509v3 Basic Constraints: 
                CA:TRUE
            X509v3 Subject Key Identifier: 
                3B:BA:FA:4F:F0:E5:39:5D:63:27:19:07:DD:65:1D:15:A1:C4:65:EC
            X509v3 Authority Key Identifier: 
                keyid:EE:D6:E5:73:85:0D:D4:33:65:C7:C6:6E:41:28:10:83:5E:61:87:C6
                DirName:/C=US/ST=Virginia/L=Fairfax/O=Zork.org/CN=Root CA/emailAddress=root@zork.org
                serial:E1:54:4F:52:D3:6C:58:0F

    Signature Algorithm: sha1WithRSAEncryption
         73:82:62:ee:53:9f:cf:ba:35:5d:a5:9c:b3:b5:0f:f1:39:83:
         b4:0c:1f:87:e0:e0:80:59:c4:97:8d:09:6c:d4:c6:6c:0b:ab:
         79:e3:11:fd:7c:3d:f8:e1:b2:14:3d:ce:2d:f1:86:3f:1d:eb:
         9d:ce:53:b5:40:a4:b9:fc:05:38:53:36:20:ce:41:9d:66:e2:
         27:ea:3a:64:a6:2f:16:de:37:e4:cb:ea:07:c8:ce:75:58:98:
         42:a2:54:f0:27:3e:ea:66:f2:ed:de:3f:0b:b4:3c:fb:e1:f1:
         48:ce:35:b0:ec:3e:ea:9d:42:21:76:aa:49:8d:56:4a:b6:4b:
         2a:f3:d8:95:a8:60:1c:93:05:81:6b:a9:a4:76:9d:b4:94:54:
         0d:d3:ba:10:33:8a:a4:9b:06:71:8d:03:de:40:aa:b3:c4:2c:
         ca:2b:b2:e5:38:2e:83:0b:b4:d7:0f:a0:3a:de:98:78:a7:e3:
         b7:08:a7:c3:5c:eb:64:89:58:97:e2:9b:52:9e:3f:84:87:f5:
         81:4c:7d:77:99:5b:33:c0:fa:0e:a1:f9:84:37:b6:01:6e:c1:
         2c:59:14:09:43:05:6c:61:80:42:d7:ba:5b:34:0c:5c:01:0e:
         0a:09:37:bf:fe:a4:e8:b3:52:97:ee:a9:d7:92:ee:81:a7:ac:
         35:da:43:ab
-----BEGIN CERTIFICATE-----
MIIEYTCCA0mgAwIBAgIBATANBgkqhkiG9w0BAQUFADB1MQswCQYDVQQGEwJVUzER
MA8GA1UECBMIVmlyZ2luaWExEDAOBgNVBAcTB0ZhaXJmYXgxETAPBgNVBAoTCFpv
cmsub3JnMRAwDgYDVQQDEwdSb290IENBMRwwGgYJKoZIhvcNAQkBFg1yb290QHpv
cmsub3JnMB4XDTE1MDQxNDE2MjYyMFoXDTE2MDQxMzE2MjYyMFowgZUxCzAJBgNV
BAYTAlVTMREwDwYDVQQIEwhWaXJnaW5pYTEQMA4GA1UEBxMHRmFpcmZheDERMA8G
A1UEChMIWm9yay5vcmcxGDAWBgNVBAsTD1NlcnZlciBEaXZpc2lvbjESMBAGA1UE
AxMJU2VydmVyIENBMSAwHgYJKoZIhvcNAQkBFhFzZXJ2ZXJjYUB6b3JrLm9yZzCC
ASIwDQYJKoZIhvcNAQEBBQADggEPADCCAQoCggEBAOY1lbj5n+j+gRLsOUb2ZQFt
91bzkQZiSyOisoyX9Awddr9Lo++n5cVeSmkp9Em5sjKRT5TVtoxyCIbmhLwx0J42
hlgwrpKtV1jPQkQL/bjvAX97XMx+tbGM0EASosKgllEirDhBNH2lH4f45KrdDY9a
t1rID8D0I234QANpq1bJUB9cjHpTiv1MQgIJwEiFMtn3wTGdzLKKKAxEdkipmgtx
IpV86qVwWXiK5zKd3v+u9yYBCIM0atIote9AnDkywHeTdiTa3k+x82hZKTSSSZ3t
oraCgs7IRFziqKbMS5Obfid2AyOkgMfIWYb78QKqf0Ms9f0Ogd9s0p+uPkU2xO8C
AwEAAaOB2jCB1zAMBgNVHRMEBTADAQH/MB0GA1UdDgQWBBQ7uvpP8OU5XWMnGQfd
ZR0VocRl7DCBpwYDVR0jBIGfMIGcgBTu1uVzhQ3UM2XHxm5BKBCDXmGHxqF5pHcw
dTELMAkGA1UEBhMCVVMxETAPBgNVBAgTCFZpcmdpbmlhMRAwDgYDVQQHEwdGYWly
ZmF4MREwDwYDVQQKEwhab3JrLm9yZzEQMA4GA1UEAxMHUm9vdCBDQTEcMBoGCSqG
SIb3DQEJARYNcm9vdEB6b3JrLm9yZ4IJAOFUT1LTbFgPMA0GCSqGSIb3DQEBBQUA
A4IBAQBzgmLuU5/PujVdpZyztQ/xOYO0DB+H4OCAWcSXjQls1MZsC6t54xH9fD34
4bIUPc4t8YY/HeudzlO1QKS5/AU4UzYgzkGdZuIn6jpkpi8W3jfky+oHyM51WJhC
olTwJz7qZvLt3j8LtDz74fFIzjWw7D7qnUIhdqpJjVZKtksq89iVqGAckwWBa6mk
dp20lFQN07oQM4qkmwZxjQPeQKqzxCzKK7LlOC6DC7TXD6A63ph4p+O3CKfDXOtk
iViX4ptSnj+Eh/WBTH13mVszwPoOofmEN7YBbsEsWRQJQwVsYYBC17pbNAxcAQ4K
CTe//qTos1KX7qnXku6Bp6w12kOr
-----END CERTIFICATE-----
-----BEGIN CERTIFICATE-----
MIIESDCCAzCgAwIBAgIJAOFUT1LTbFgPMA0GCSqGSIb3DQEBBQUAMHUxCzAJBgNV
BAYTAlVTMREwDwYDVQQIEwhWaXJnaW5pYTEQMA4GA1UEBxMHRmFpcmZheDERMA8G
A1UEChMIWm9yay5vcmcxEDAOBgNVBAMTB1Jvb3QgQ0ExHDAaBgkqhkiG9w0BCQEW
DXJvb3RAem9yay5vcmcwHhcNMTUwNDE0MTYwNzMwWhcNMTUwNTE0MTYwNzMwWjB1
MQswCQYDVQQGEwJVUzERMA8GA1UECBMIVmlyZ2luaWExEDAOBgNVBAcTB0ZhaXJm
YXgxETAPBgNVBAoTCFpvcmsub3JnMRAwDgYDVQQDEwdSb290IENBMRwwGgYJKoZI
hvcNAQkBFg1yb290QHpvcmsub3JnMIIBIjANBgkqhkiG9w0BAQEFAAOCAQ8AMIIB
CgKCAQEAoB1TvOOAF+i5Y+ovTPOEHzq/31TXmbbBNYYeRoRRjlPMUkZ2zWPqSJO0
ZXQdoHTVOaS023Q5f0Lwclck+I208/bxG9Ll1lN+pVlxnB00hFqcRiLMe7UEZifd
74lruPXrzVn5Y3WZoAXrYnC9b3HdkrjNgIF/VxOpfAw0Oc5n5iOUZHTIxAO0KQr5
NKD1+5TCn0Vt3ab9Wep8aNSbkwAOPGyJChEdl4BMDBT3iSMAmOXz1czGa/XAerzo
23YbxkhvT17JZzxBoWgDrF23EKxCJfZ2e1OHu4gpJiXRF4VFXQBxPakHp9kvQQ9q
Uh5rbT7f3EIrY4BAISsuy9ETVAT4bQIDAQABo4HaMIHXMAwGA1UdEwQFMAMBAf8w
HQYDVR0OBBYEFO7W5XOFDdQzZcfGbkEoEINeYYfGMIGnBgNVHSMEgZ8wgZyAFO7W
5XOFDdQzZcfGbkEoEINeYYfGoXmkdzB1MQswCQYDVQQGEwJVUzERMA8GA1UECBMI
VmlyZ2luaWExEDAOBgNVBAcTB0ZhaXJmYXgxETAPBgNVBAoTCFpvcmsub3JnMRAw
DgYDVQQDEwdSb290IENBMRwwGgYJKoZIhvcNAQkBFg1yb290QHpvcmsub3JnggkA
4VRPUtNsWA8wDQYJKoZIhvcNAQEFBQADggEBAB/G0iDHJsSPVffoH3d+Z0nBncmf
0hY5TMDEshSYhnXF4hNMbWH5Ea86HkGjdWXyFzM+RFEYtx2uQkG8WyepgifMzUTr
Koll4WV48JoEcTuIumrMhjXeWnmcKUndx+bxn6QxmbxWx0JMiJC0aRb5QhuhlOWg
MiS1Yclfs6c+jlihAjy0WAA1gM9zjnnFUK8tPCdtFm/4b1BQ3H33ftuNHC600fWp
GjKeWHAeXKWq7E2gggSAfvw3X/TWlxM0iEgExNfMHqbrIu299V86+ictVhJ2hKku
vBBURyZJj9VwZlC2FF83utYEMohzI/hH2JTIYSQpHGCbB/QYvvy3O9ya3HM=
-----END CERTIFICATE-----
