Certificate:
    Data:
        Version: 3 (0x2)
        Serial Number: 1 (0x1)
    Signature Algorithm: sha1WithRSAEncryption
        Issuer: C=US, ST=Virginia, L=Fairfax, O=Zork.org, OU=Server Division, CN=Server CA/emailAddress=serverca@zork.org
        Validity
            Not Before: Apr 14 16:35:50 2015 GMT
            Not After : Apr 13 16:35:50 2016 GMT
        Subject: C=US, ST=Virginia, L=Fairfax, O=Zork.org, CN=splat.zork.org/emailAddress=splat@zork.org
        Subject Public Key Info:
            Public Key Algorithm: rsaEncryption
                Public-Key: (1024 bit)
                Modulus:
                    00:9c:9d:b4:c5:94:d6:55:04:b5:72:e2:07:77:16:
                    28:95:e5:02:70:8d:19:1e:18:91:50:97:8b:a5:a8:
                    db:e2:ec:d5:0f:9b:7f:12:e1:72:77:2c:f5:08:1c:
                    bc:58:f2:5d:1f:df:99:8a:f6:7a:21:e7:35:e3:c2:
                    25:0f:b8:94:ed:ab:73:89:3a:a2:81:5a:12:62:83:
                    52:3f:9b:29:61:c6:77:f6:f6:84:21:71:e7:c1:16:
                    b1:05:bc:6a:91:06:30:2e:22:cb:2a:75:27:d4:be:
                    81:16:58:e6:02:b3:9d:c3:5c:4d:fe:e8:73:bf:70:
                    06:21:39:11:e2:2d:bd:ed:d5
                Exponent: 65537 (0x10001)
        X509v3 extensions:
            X509v3 Basic Constraints: 
                CA:FALSE
            X509v3 Subject Alternative Name: 
                DNS:splat.zork.org, email:splat@zork.org
    Signature Algorithm: sha1WithRSAEncryption
         85:37:f2:7c:48:51:8d:93:c4:e4:92:3f:37:87:54:8c:f0:2c:
         16:3b:0a:b2:62:34:a4:3d:99:9b:c6:2b:33:06:f2:fd:99:de:
         3c:ae:9e:96:ce:7d:40:c1:b3:dd:6c:9b:6a:19:b8:e7:5f:af:
         51:2e:b5:a9:c1:03:21:20:a2:c4:7d:49:29:7f:b4:d5:85:80:
         91:fb:7f:fd:75:0d:ac:53:1c:8c:93:3b:0f:84:22:c7:c2:92:
         de:d5:59:86:cc:3c:fc:b2:bf:e6:4c:e0:bf:05:7e:84:7d:46:
         5b:3a:01:a5:40:3b:9d:a4:31:17:0b:55:2d:d2:6c:2d:ce:ec:
         a7:50:79:13:8f:b6:48:f9:7a:95:2d:4e:60:c3:a2:34:a6:e3:
         da:70:15:94:e5:96:9f:ef:b4:ac:0c:6e:9f:35:a8:d7:3b:27:
         4e:b2:dc:a3:36:53:cb:a9:04:1d:e3:b6:23:f0:3b:44:35:f9:
         e7:4f:9d:ea:c0:0b:62:29:ad:cd:8a:8f:65:91:36:76:8b:54:
         f9:24:12:3e:6c:6b:d7:9e:7d:83:00:6a:9d:da:6b:bc:fd:c6:
         e5:24:7b:9f:18:91:b0:95:7e:a7:31:70:9f:92:09:e5:bc:b2:
         74:fa:6f:70:2e:e6:6d:8c:ae:c1:44:32:e8:b7:58:9b:85:6a:
         60:d1:bc:fd
-----BEGIN CERTIFICATE-----
MIIDQjCCAiqgAwIBAgIBATANBgkqhkiG9w0BAQUFADCBlTELMAkGA1UEBhMCVVMx
ETAPBgNVBAgTCFZpcmdpbmlhMRAwDgYDVQQHEwdGYWlyZmF4MREwDwYDVQQKEwha
b3JrLm9yZzEYMBYGA1UECxMPU2VydmVyIERpdmlzaW9uMRIwEAYDVQQDEwlTZXJ2
ZXIgQ0ExIDAeBgkqhkiG9w0BCQEWEXNlcnZlcmNhQHpvcmsub3JnMB4XDTE1MDQx
NDE2MzU1MFoXDTE2MDQxMzE2MzU1MFowfTELMAkGA1UEBhMCVVMxETAPBgNVBAgT
CFZpcmdpbmlhMRAwDgYDVQQHEwdGYWlyZmF4MREwDwYDVQQKEwhab3JrLm9yZzEX
MBUGA1UEAxMOc3BsYXQuem9yay5vcmcxHTAbBgkqhkiG9w0BCQEWDnNwbGF0QHpv
cmsub3JnMIGfMA0GCSqGSIb3DQEBAQUAA4GNADCBiQKBgQCcnbTFlNZVBLVy4gd3
FiiV5QJwjRkeGJFQl4ulqNvi7NUPm38S4XJ3LPUIHLxY8l0f35mK9noh5zXjwiUP
uJTtq3OJOqKBWhJig1I/mylhxnf29oQhcefBFrEFvGqRBjAuIssqdSfUvoEWWOYC
s53DXE3+6HO/cAYhORHiLb3t1QIDAQABozgwNjAJBgNVHRMEAjAAMCkGA1UdEQQi
MCCCDnNwbGF0Lnpvcmsub3JngQ5zcGxhdEB6b3JrLm9yZzANBgkqhkiG9w0BAQUF
AAOCAQEAhTfyfEhRjZPE5JI/N4dUjPAsFjsKsmI0pD2Zm8YrMwby/ZnePK6els59
QMGz3Wybahm451+vUS61qcEDISCixH1JKX+01YWAkft//XUNrFMcjJM7D4Qix8KS
3tVZhsw8/LK/5kzgvwV+hH1GWzoBpUA7naQxFwtVLdJsLc7sp1B5E4+2SPl6lS1O
YMOiNKbj2nAVlOWWn++0rAxunzWo1zsnTrLcozZTy6kEHeO2I/A7RDX550+d6sAL
YimtzYqPZZE2dotU+SQSPmxr1559gwBqndprvP3G5SR7nxiRsJV+pzFwn5IJ5byy
dPpvcC7mbYyuwUQy6LdYm4VqYNG8/Q==
-----END CERTIFICATE-----
