Certificate:
    Data:
        Version: 3 (0x2)
        Serial Number: 2 (0x2)
    Signature Algorithm: sha1WithRSAEncryption
        Issuer: C=US, ST=Virginia, L=Fairfax, O=Root CA, CN=easyssl.com/emailAddress=root@easyssl.com
        Validity
            Not Before: Apr 27 22:55:14 2015 GMT
            Not After : Apr 26 22:55:14 2016 GMT
        Subject: C=US, ST=Virginia, L=Fairfax, O=Client, CN=client.easyssl.com/emailAddress=client@easyssl.com
        Subject Public Key Info:
            Public Key Algorithm: rsaEncryption
                Public-Key: (1024 bit)
                Modulus:
                    00:ad:b7:82:a8:5f:c5:da:25:7e:0a:07:2a:01:ce:
                    ca:0e:65:b7:83:ff:ba:63:e7:de:9c:42:b0:8c:d6:
                    03:74:86:87:27:d9:84:fa:7c:f6:f8:d8:40:de:61:
                    02:d6:0d:cd:57:68:06:4d:d5:68:28:8e:c0:52:e9:
                    3e:2c:38:fc:18:2f:16:24:fc:00:d2:bd:b3:52:9a:
                    77:c1:06:cf:36:7e:ae:16:a6:bb:a4:3b:9b:ee:4e:
                    79:00:a4:e0:fa:54:61:01:23:e5:32:ae:44:94:8f:
                    09:6e:a9:28:f6:39:4c:73:6d:53:dd:08:72:da:08:
                    33:ba:ed:fd:0b:90:79:9b:db
                Exponent: 65537 (0x10001)
        X509v3 extensions:
            X509v3 Basic Constraints: 
                CA:FALSE
            X509v3 Subject Alternative Name: 
                email:client@easyssl.com
            X509v3 CRL Distribution Points: 

                Full Name:
                  URI:http://easyssl.com/crl.pem

    Signature Algorithm: sha1WithRSAEncryption
         22:d1:52:3e:cf:cb:3a:8e:cb:98:35:02:a0:ad:46:31:48:fb:
         0a:d2:b4:60:e5:e7:db:7e:97:96:04:6f:e0:bd:16:f0:e3:72:
         62:47:ac:02:f3:c7:01:ad:6e:33:0d:f2:42:68:b4:87:1b:9f:
         f1:45:60:fb:e1:e8:50:5f:e7:72:3e:da:e5:75:85:11:a9:4e:
         a6:cb:a9:87:11:df:b1:05:68:f8:9d:c1:51:1c:aa:ed:e7:b0:
         28:da:9d:bc:e6:7f:39:0b:d6:b7:28:fb:87:84:8e:c8:4b:d8:
         1e:02:c2:1e:09:d1:d6:b5:7b:10:0e:0d:83:e0:95:9d:c9:92:
         e7:3b:86:8a:fa:0a:e1:79:e1:8e:44:53:37:e6:08:90:bd:8f:
         5f:91:e2:60:0c:fb:24:00:f2:26:db:55:0f:00:56:74:9d:4f:
         a5:68:e3:43:61:b5:ee:84:e4:52:a6:70:dd:28:b6:6d:4d:56:
         7e:fc:7c:12:67:0a:68:55:b9:f0:bd:78:bb:87:2a:1a:5f:c8:
         ff:fb:32:6f:1e:8e:6a:97:6e:4a:d4:4e:2a:35:4c:c0:e1:10:
         4f:9d:99:c9:56:ff:1e:c1:1f:4c:f9:5e:64:15:79:45:48:ce:
         3f:78:90:de:ac:3c:20:64:fa:b5:dc:17:9b:28:aa:21:e4:14:
         41:8d:ec:b1
-----BEGIN CERTIFICATE-----
MIIDTzCCAjegAwIBAgIBAjANBgkqhkiG9w0BAQUFADB7MQswCQYDVQQGEwJVUzER
MA8GA1UECBMIVmlyZ2luaWExEDAOBgNVBAcTB0ZhaXJmYXgxEDAOBgNVBAoTB1Jv
b3QgQ0ExFDASBgNVBAMTC2Vhc3lzc2wuY29tMR8wHQYJKoZIhvcNAQkBFhByb290
QGVhc3lzc2wuY29tMB4XDTE1MDQyNzIyNTUxNFoXDTE2MDQyNjIyNTUxNFowgYMx
CzAJBgNVBAYTAlVTMREwDwYDVQQIEwhWaXJnaW5pYTEQMA4GA1UEBxMHRmFpcmZh
eDEPMA0GA1UEChMGQ2xpZW50MRswGQYDVQQDExJjbGllbnQuZWFzeXNzbC5jb20x
ITAfBgkqhkiG9w0BCQEWEmNsaWVudEBlYXN5c3NsLmNvbTCBnzANBgkqhkiG9w0B
AQEFAAOBjQAwgYkCgYEArbeCqF/F2iV+CgcqAc7KDmW3g/+6Y+fenEKwjNYDdIaH
J9mE+nz2+NhA3mEC1g3NV2gGTdVoKI7AUuk+LDj8GC8WJPwA0r2zUpp3wQbPNn6u
Fqa7pDub7k55AKTg+lRhASPlMq5ElI8Jbqko9jlMc21T3Qhy2ggzuu39C5B5m9sC
AwEAAaNZMFcwCQYDVR0TBAIwADAdBgNVHREEFjAUgRJjbGllbnRAZWFzeXNzbC5j
b20wKwYDVR0fBCQwIjAgoB6gHIYaaHR0cDovL2Vhc3lzc2wuY29tL2NybC5wZW0w
DQYJKoZIhvcNAQEFBQADggEBACLRUj7PyzqOy5g1AqCtRjFI+wrStGDl59t+l5YE
b+C9FvDjcmJHrALzxwGtbjMN8kJotIcbn/FFYPvh6FBf53I+2uV1hRGpTqbLqYcR
37EFaPidwVEcqu3nsCjanbzmfzkL1rco+4eEjshL2B4Cwh4J0da1exAODYPglZ3J
kuc7hor6CuF54Y5EUzfmCJC9j1+R4mAM+yQA8ibbVQ8AVnSdT6Vo40Nhte6E5FKm
cN0otm1NVn78fBJnCmhVufC9eLuHKhpfyP/7Mm8ejmqXbkrUTio1TMDhEE+dmclW
/x7BH0z5XmQVeUVIzj94kN6sPCBk+rXcF5soqiHkFEGN7LE=
-----END CERTIFICATE-----
