Certificate:
    Data:
        Version: 3 (0x2)
        Serial Number: 1 (0x1)
    Signature Algorithm: sha1WithRSAEncryption
        Issuer: C=US, ST=Virginia, L=Fairfax, O=Root CA, CN=easyssl.com/emailAddress=root@easyssl.com
        Validity
            Not Before: Apr 27 22:52:44 2015 GMT
            Not After : Apr 26 22:52:44 2016 GMT
        Subject: C=US, ST=Virginia, L=Fairfax, O=Server, CN=server.easyssl.com/emailAddress=server@easyssl.com
        Subject Public Key Info:
            Public Key Algorithm: rsaEncryption
                Public-Key: (1024 bit)
                Modulus:
                    00:c5:80:da:a1:81:6f:da:61:45:0a:59:13:f4:8a:
                    35:d7:9b:7c:8d:be:fe:5a:7f:fc:7a:cf:dd:8b:f5:
                    86:99:ce:98:02:6f:7e:f0:19:e9:1e:16:e9:59:45:
                    01:8b:09:80:94:bf:7c:c4:7b:01:af:2f:e6:c3:53:
                    81:e8:90:36:f5:7e:59:7b:f5:15:c9:0f:e6:cd:7f:
                    24:26:84:88:0a:33:5b:f9:34:f8:29:32:5c:0e:25:
                    70:31:47:6a:35:c6:f6:3a:a6:63:bb:c9:0d:00:4f:
                    04:29:67:fe:5a:41:79:77:8a:78:04:64:63:e1:cc:
                    97:58:48:08:c4:85:5e:7b:57
                Exponent: 65537 (0x10001)
        X509v3 extensions:
            X509v3 Basic Constraints: 
                CA:FALSE
            X509v3 Subject Alternative Name: 
                DNS:server.easyssl.com, email:server@easyssl.com
            X509v3 CRL Distribution Points: 

                Full Name:
                  URI:http://easyssl.com/crl.pem

    Signature Algorithm: sha1WithRSAEncryption
         22:5f:fe:2f:11:30:9d:d3:3b:26:a2:29:e1:ec:1a:7d:a4:9c:
         a1:b1:cd:19:ed:d0:49:3d:c8:5c:b2:6b:34:f5:3e:86:29:90:
         34:19:79:d1:60:de:b9:7c:dd:fa:f5:9f:10:57:be:06:7a:72:
         36:6f:17:6d:3e:2d:d7:7c:2e:8c:8b:f3:09:8e:1f:81:e4:c2:
         09:08:f3:33:3f:19:5b:e8:81:83:3c:5e:c3:36:3e:f3:db:20:
         98:c5:b2:1a:31:f7:e4:ac:5e:33:a0:1c:87:bf:76:4e:ab:21:
         d8:87:97:df:38:53:59:b8:d9:33:df:a5:97:66:09:1a:40:ac:
         e9:5c:ec:14:dd:77:9f:67:5e:75:82:bd:3f:c1:9a:a4:e6:60:
         ec:63:a8:79:be:5f:7e:54:c0:b7:0d:cc:6e:d0:b0:bc:b7:db:
         f8:61:65:6c:32:8c:7b:63:db:8c:a9:64:aa:e4:18:85:42:d0:
         ef:af:44:cc:a5:4f:a4:ed:90:74:dd:cc:d6:ac:38:90:27:e5:
         28:d7:bd:6b:e5:d1:5c:ed:8a:a7:86:c2:5f:2a:8b:cd:d0:8e:
         95:e0:fc:55:eb:93:d0:72:8b:6d:73:94:bc:94:f0:5d:ed:8e:
         da:0d:15:76:b6:e2:11:4c:14:6e:e5:4f:f5:4b:62:62:1a:6a:
         17:6f:13:3a
-----BEGIN CERTIFICATE-----
MIIDYzCCAkugAwIBAgIBATANBgkqhkiG9w0BAQUFADB7MQswCQYDVQQGEwJVUzER
MA8GA1UECBMIVmlyZ2luaWExEDAOBgNVBAcTB0ZhaXJmYXgxEDAOBgNVBAoTB1Jv
b3QgQ0ExFDASBgNVBAMTC2Vhc3lzc2wuY29tMR8wHQYJKoZIhvcNAQkBFhByb290
QGVhc3lzc2wuY29tMB4XDTE1MDQyNzIyNTI0NFoXDTE2MDQyNjIyNTI0NFowgYMx
CzAJBgNVBAYTAlVTMREwDwYDVQQIEwhWaXJnaW5pYTEQMA4GA1UEBxMHRmFpcmZh
eDEPMA0GA1UEChMGU2VydmVyMRswGQYDVQQDExJzZXJ2ZXIuZWFzeXNzbC5jb20x
ITAfBgkqhkiG9w0BCQEWEnNlcnZlckBlYXN5c3NsLmNvbTCBnzANBgkqhkiG9w0B
AQEFAAOBjQAwgYkCgYEAxYDaoYFv2mFFClkT9Io115t8jb7+Wn/8es/di/WGmc6Y
Am9+8BnpHhbpWUUBiwmAlL98xHsBry/mw1OB6JA29X5Ze/UVyQ/mzX8kJoSICjNb
+TT4KTJcDiVwMUdqNcb2OqZju8kNAE8EKWf+WkF5d4p4BGRj4cyXWEgIxIVee1cC
AwEAAaNtMGswCQYDVR0TBAIwADAxBgNVHREEKjAoghJzZXJ2ZXIuZWFzeXNzbC5j
b22BEnNlcnZlckBlYXN5c3NsLmNvbTArBgNVHR8EJDAiMCCgHqAchhpodHRwOi8v
ZWFzeXNzbC5jb20vY3JsLnBlbTANBgkqhkiG9w0BAQUFAAOCAQEAIl/+LxEwndM7
JqIp4ewafaScobHNGe3QST3IXLJrNPU+himQNBl50WDeuXzd+vWfEFe+BnpyNm8X
bT4t13wujIvzCY4fgeTCCQjzMz8ZW+iBgzxewzY+89sgmMWyGjH35KxeM6Ach792
Tqsh2IeX3zhTWbjZM9+ll2YJGkCs6VzsFN13n2dedYK9P8GapOZg7GOoeb5fflTA
tw3MbtCwvLfb+GFlbDKMe2PbjKlkquQYhULQ769EzKVPpO2QdN3M1qw4kCflKNe9
a+XRXO2Kp4bCXyqLzdCOleD8VeuT0HKLbXOUvJTwXe2O2g0VdrbiEUwUbuVP9Uti
YhpqF28TOg==
-----END CERTIFICATE-----
